target datalayout = "e-m:e-p270:32:32-p271:32:32-p272:64:64-i64:64-i128:128-f80:128-n8:16:32:64-S128"
target triple = "x86_64-pc-linux-gnu"

%struct.nstime_t = type { i64, i32 }

@.str.9 = private unnamed_addr constant [20 x i8] c"0.000000000 seconds\00", align 1

; Function Attrs: null_pointer_is_valid sspstrong uwtable
define ptr @rel_time_to_str(ptr noundef %0, ptr noundef %1) #0 {
  %3 = alloca ptr, align 8
  %4 = alloca ptr, align 8
  %5 = alloca ptr, align 8
  %6 = alloca ptr, align 8
  %7 = alloca i64, align 8
  %8 = alloca i32, align 4
  %9 = alloca i32, align 4
  store ptr %0, ptr %4, align 8
  store ptr %1, ptr %5, align 8
  call void @llvm.lifetime.start.p0(i64 8, ptr %6) #8
  call void @llvm.lifetime.start.p0(i64 8, ptr %7) #8
  call void @llvm.lifetime.start.p0(i64 4, ptr %8) #8
  %10 = load ptr, ptr %5, align 8
  %11 = getelementptr inbounds nuw %struct.nstime_t, ptr %10, i32 0, i32 0
  %12 = load i64, ptr %11, align 8
  store i64 %12, ptr %7, align 8
  %13 = load ptr, ptr %5, align 8
  %14 = getelementptr inbounds nuw %struct.nstime_t, ptr %13, i32 0, i32 1
  %15 = load i32, ptr %14, align 8
  store i32 %15, ptr %8, align 4
  %16 = load i64, ptr %7, align 8
  %17 = icmp eq i64 %16, 0
  br i1 %17, label %18, label %24

18:                                               ; preds = %2
  %19 = load i32, ptr %8, align 4
  %20 = icmp eq i32 %19, 0
  br i1 %20, label %21, label %24

21:                                               ; preds = %18
  %22 = load ptr, ptr %4, align 8
  %23 = call noalias ptr @wmem_strdup(ptr noundef %22, ptr noundef @.str.9)
  store ptr %23, ptr %3, align 8
  store i32 1, ptr %9, align 4
  br label %43

24:                                               ; preds = %18, %2
  %25 = load ptr, ptr %4, align 8
  %26 = call noalias ptr @wmem_strbuf_new_sized(ptr noundef %25, i64 noundef 65)
  store ptr %26, ptr %6, align 8
  %27 = load i32, ptr %8, align 4
  %28 = icmp slt i32 %27, 0
  br i1 %28, label %29, label %37

29:                                               ; preds = %24
  %30 = load i32, ptr %8, align 4
  %31 = sub i32 0, %30
  store i32 %31, ptr %8, align 4
  %32 = load ptr, ptr %6, align 8
  call void @wmem_strbuf_append_c(ptr noundef %32, i8 noundef signext 45)
  %33 = load ptr, ptr %5, align 8
  %34 = getelementptr inbounds nuw %struct.nstime_t, ptr %33, i32 0, i32 0
  %35 = load i64, ptr %34, align 8
  %36 = sub i64 0, %35
  store i64 %36, ptr %7, align 8
  br label %37

37:                                               ; preds = %29, %24
  %38 = load i64, ptr %7, align 8
  %39 = load i32, ptr %8, align 4
  %40 = load ptr, ptr %6, align 8
  call void @signed_time_secs_to_str_buf(i64 noundef %38, i32 noundef %39, i1 noundef zeroext true, ptr noundef %40)
  %41 = load ptr, ptr %6, align 8
  %42 = call ptr @wmem_strbuf_finalize(ptr noundef %41)
  store ptr %42, ptr %3, align 8
  store i32 1, ptr %9, align 4
  br label %43

43:                                               ; preds = %37, %21
  call void @llvm.lifetime.end.p0(i64 4, ptr %8) #8
  call void @llvm.lifetime.end.p0(i64 8, ptr %7) #8
  call void @llvm.lifetime.end.p0(i64 8, ptr %6) #8
  %44 = load ptr, ptr %3, align 8
  ret ptr %44
}