; Function Attrs: null_pointer_is_valid sspstrong uwtable
define ptr @rel_time_to_str(ptr noundef %0, ptr noundef readonly captures(none) %1) local_unnamed_addr #0 {
  %3 = load i64, ptr %1, align 8
  %4 = getelementptr inbounds nuw i8, ptr %1, i64 8
  %5 = load i32, ptr %4, align 8
  %6 = icmp eq i64 %3, 0
  %7 = icmp eq i32 %5, 0
  %or.cond = select i1 %6, i1 %7, i1 false
  br i1 %or.cond, label %8, label %10

8:                                                ; preds = %2
  %9 = tail call noalias ptr @wmem_strdup(ptr noundef %0, ptr noundef nonnull @.str.9)
  br label %19

10:                                               ; preds = %2
  %11 = tail call noalias ptr @wmem_strbuf_new_sized(ptr noundef %0, i64 noundef 65)
  %12 = icmp slt i32 %5, 0
  br i1 %12, label %13, label %17

13:                                               ; preds = %10
  %14 = sub i32 0, %5
  tail call void @wmem_strbuf_append_c(ptr noundef %11, i8 noundef signext 45)
  %15 = load i64, ptr %1, align 8
  %16 = sub i64 0, %15
  br label %17

17:                                               ; preds = %13, %10
  %.015 = phi i64 [ %16, %13 ], [ %3, %10 ]
  %.0 = phi i32 [ %14, %13 ], [ %5, %10 ]
  tail call fastcc void @signed_time_secs_to_str_buf(i64 noundef %.015, i32 noundef %.0, i1 noundef zeroext true, ptr noundef %11)
  %18 = tail call ptr @wmem_strbuf_finalize(ptr noundef %11)
  br label %19

19:                                               ; preds = %17, %8
  %.016 = phi ptr [ %9, %8 ], [ %18, %17 ]
  ret ptr %.016
}